; Function Attrs: mustprogress nounwind uwtable
define hidden void @_ZN4ncnn9Extractor5clearEv(ptr noundef nonnull readonly align 8 captures(none) dereferenceable(16) %0) local_unnamed_addr #0 align 2 personality ptr @__gxx_personality_v0 {
  %2 = getelementptr inbounds nuw i8, ptr %0, i64 8
  %3 = load ptr, ptr %2, align 8, !tbaa !213
  %4 = getelementptr inbounds nuw i8, ptr %3, i64 8
  %5 = load ptr, ptr %4, align 8, !tbaa !62
  %6 = getelementptr inbounds nuw i8, ptr %3, i64 16
  %7 = load ptr, ptr %6, align 8, !tbaa !109
  %.not.i.i = icmp eq ptr %7, %5
  br i1 %.not.i.i, label %_ZNSt6vectorIN4ncnn3MatESaIS1_EE5clearEv.exit, label %.lr.ph.i.i.i.i.i

.lr.ph.i.i.i.i.i:                                 ; preds = %1, %_ZSt8_DestroyIN4ncnn3MatEEvPT_.exit.i.i.i.i.i
  %.05.i.i.i.i.i = phi ptr [ %28, %_ZSt8_DestroyIN4ncnn3MatEEvPT_.exit.i.i.i.i.i ], [ %5, %1 ]
  %8 = getelementptr inbounds nuw i8, ptr %.05.i.i.i.i.i, i64 8
  %9 = load ptr, ptr %8, align 8, !tbaa !97
  %.not.i.i.i.i.i.i.i = icmp eq ptr %9, null
  br i1 %.not.i.i.i.i.i.i.i, label %_ZSt8_DestroyIN4ncnn3MatEEvPT_.exit.i.i.i.i.i, label %10

10:                                               ; preds = %.lr.ph.i.i.i.i.i
  %11 = atomicrmw add ptr %9, i32 -1 acq_rel, align 4
  %12 = icmp eq i32 %11, 1
  br i1 %12, label %13, label %_ZSt8_DestroyIN4ncnn3MatEEvPT_.exit.i.i.i.i.i

13:                                               ; preds = %10
  %14 = getelementptr inbounds nuw i8, ptr %.05.i.i.i.i.i, i64 32
  %15 = load ptr, ptr %14, align 8, !tbaa !99
  %.not3.i.i.i.i.i.i.i = icmp eq ptr %15, null
  %16 = load ptr, ptr %.05.i.i.i.i.i, align 8, !tbaa !100
  br i1 %.not3.i.i.i.i.i.i.i, label %21, label %17

17:                                               ; preds = %13
  %18 = load ptr, ptr %15, align 8, !tbaa !4
  %19 = getelementptr inbounds nuw i8, ptr %18, i64 24
  %20 = load ptr, ptr %19, align 8
  invoke void %20(ptr noundef nonnull align 8 dereferenceable(8) %15, ptr noundef %16)
          to label %_ZSt8_DestroyIN4ncnn3MatEEvPT_.exit.i.i.i.i.i unwind label %23

21:                                               ; preds = %13
  %.not.i1.i.i.i.i.i.i = icmp eq ptr %16, null
  br i1 %.not.i1.i.i.i.i.i.i, label %_ZSt8_DestroyIN4ncnn3MatEEvPT_.exit.i.i.i.i.i, label %22

22:                                               ; preds = %21
  tail call void @free(ptr noundef nonnull %16) #26
  br label %_ZSt8_DestroyIN4ncnn3MatEEvPT_.exit.i.i.i.i.i

23:                                               ; preds = %17
  %24 = landingpad { ptr, i32 }
          catch ptr null
  %25 = extractvalue { ptr, i32 } %24, 0
  tail call void @__clang_call_terminate(ptr %25) #28
  unreachable

_ZSt8_DestroyIN4ncnn3MatEEvPT_.exit.i.i.i.i.i:    ; preds = %22, %21, %17, %10, %.lr.ph.i.i.i.i.i
  %26 = getelementptr inbounds nuw i8, ptr %.05.i.i.i.i.i, i64 40
  %27 = getelementptr inbounds nuw i8, ptr %.05.i.i.i.i.i, i64 64
  store i64 0, ptr %27, align 8, !tbaa !94
  tail call void @llvm.memset.p0.i64(ptr noundef nonnull align 8 dereferenceable(28) %.05.i.i.i.i.i, i8 0, i64 28, i1 false)
  tail call void @llvm.memset.p0.i64(ptr noundef nonnull align 8 dereferenceable(20) %26, i8 0, i64 20, i1 false)
  %28 = getelementptr inbounds nuw i8, ptr %.05.i.i.i.i.i, i64 72
  %.not.i.i.i.i.i = icmp eq ptr %28, %7
  br i1 %.not.i.i.i.i.i, label %_ZSt8_DestroyIPN4ncnn3MatES1_EvT_S3_RSaIT0_E.exit.i.i, label %.lr.ph.i.i.i.i.i, !llvm.loop !113

_ZSt8_DestroyIPN4ncnn3MatES1_EvT_S3_RSaIT0_E.exit.i.i: ; preds = %_ZSt8_DestroyIN4ncnn3MatEEvPT_.exit.i.i.i.i.i
  store ptr %5, ptr %6, align 8, !tbaa !109
  br label %_ZNSt6vectorIN4ncnn3MatESaIS1_EE5clearEv.exit

_ZNSt6vectorIN4ncnn3MatESaIS1_EE5clearEv.exit:    ; preds = %1, %_ZSt8_DestroyIPN4ncnn3MatES1_EvT_S3_RSaIT0_E.exit.i.i
  ret void
}